;--------------------------------------------------------
; File Created by SDCC : free open source ISO C Compiler
; Version 4.5.1 #15267 (Linux)
;--------------------------------------------------------
	.module LevelLogic
	
;--------------------------------------------------------
; Public variables in this module
;--------------------------------------------------------
	.globl _global_colision_map
	.globl _global_game_state
	.globl _global_events
	.globl _update_game_state
	.globl _get_colision_from_map
;--------------------------------------------------------
; special function registers
;--------------------------------------------------------
;--------------------------------------------------------
; ram data
;--------------------------------------------------------
	.area _DATA
_global_events::
	.ds 40
;--------------------------------------------------------
; ram data
;--------------------------------------------------------
	.area _INITIALIZED
_global_game_state::
	.ds 1
_global_colision_map::
	.ds 360
;--------------------------------------------------------
; absolute external ram data
;--------------------------------------------------------
	.area _DABS (ABS)
;--------------------------------------------------------
; global & static initialisations
;--------------------------------------------------------
	.area _HOME
	.area _GSINIT
	.area _GSFINAL
	.area _GSINIT
;--------------------------------------------------------
; Home
;--------------------------------------------------------
	.area _HOME
	.area _HOME
;--------------------------------------------------------
; code
;--------------------------------------------------------
	.area _CODE
;src/LevelLogic.c:18: void update_game_state(GameState new_value){
;	---------------------------------
; Function update_game_state
; ---------------------------------
_update_game_state::
	ld	(#_global_game_state),a
;src/LevelLogic.c:19: global_game_state = new_value;
;src/LevelLogic.c:20: }
	ret
;src/LevelLogic.c:23: void get_colision_from_map(const unsigned char in[], uint8_t out[]){
;	---------------------------------
; Function get_colision_from_map
; ---------------------------------
_get_colision_from_map::
	add	sp, #-5
	ldhl	sp,	#3
	ld	a, e
	ld	(hl+), a
	ld	(hl), d
	ldhl	sp,	#1
	ld	a, c
	ld	(hl+), a
	ld	(hl), b
;src/LevelLogic.c:25: for(uint16_t i = 0; i<360; i++){
	ld	bc, #0x0000
00113$:
	ld	e, c
	ld	d, b
	ld	a, e
	sub	a, #0x68
	ld	a, d
	sbc	a, #0x01
	jr	NC, 00115$
;src/LevelLogic.c:26: if(in[i] >= 24 && in[i] <= 27){
	ldhl	sp,	#3
	ld	a,	(hl+)
	ld	h, (hl)
	ld	l, a
	add	hl, bc
	ld	e, l
	ld	d, h
;src/LevelLogic.c:28: } else if(in[i] >= 20 && in[i] <= 23){
	ld	a, (de)
	ldhl	sp,	#0
;src/LevelLogic.c:27: out[i] = SOURCE;
	ld	(hl+), a
	ld	a,	(hl+)
	ld	h, (hl)
	ld	l, a
	add	hl, bc
	ld	e, l
	ld	d, h
;src/LevelLogic.c:26: if(in[i] >= 24 && in[i] <= 27){
	ldhl	sp,	#0
	ld	a, (hl)
	sub	a, #0x18
	jr	C, 00108$
	ld	a, #0x1b
	sub	a, (hl)
	jr	C, 00108$
;src/LevelLogic.c:27: out[i] = SOURCE;
	ld	a, #0x03
	ld	(de), a
	jr	00114$
00108$:
;src/LevelLogic.c:28: } else if(in[i] >= 20 && in[i] <= 23){
	ldhl	sp,	#0
	ld	a, (hl)
	sub	a, #0x14
	jr	C, 00104$
	ld	a, #0x17
	sub	a, (hl)
	jr	C, 00104$
;src/LevelLogic.c:29: out[i] = DESTINATION;
	ld	a, #0x04
	ld	(de), a
	jr	00114$
00104$:
;src/LevelLogic.c:30: } else if(in[i] >= UMBRAL_COLISION){
	ldhl	sp,	#0
	ld	a, (hl)
	sub	a, #0x03
	jr	C, 00114$
;src/LevelLogic.c:31: out[i] = SOLID;
	ld	a, #0x01
	ld	(de), a
00114$:
;src/LevelLogic.c:25: for(uint16_t i = 0; i<360; i++){
	inc	bc
	jr	00113$
00115$:
;src/LevelLogic.c:34: }
	add	sp, #5
	ret
	.area _CODE
	.area _INITIALIZER
__xinit__global_game_state:
	.db #0x02	; 2
__xinit__global_colision_map:
	.db #0x00	; 0
	.db 0x00
	.db 0x00
	.db 0x00
	.db 0x00
	.db 0x00
	.db 0x00
	.db 0x00
	.db 0x00
	.db 0x00
	.db 0x00
	.db 0x00
	.db 0x00
	.db 0x00
	.db 0x00
	.db 0x00
	.db 0x00
	.db 0x00
	.db 0x00
	.db 0x00
	.db 0x00
	.db 0x00
	.db 0x00
	.db 0x00
	.db 0x00
	.db 0x00
	.db 0x00
	.db 0x00
	.db 0x00
	.db 0x00
	.db 0x00
	.db 0x00
	.db 0x00
	.db 0x00
	.db 0x00
	.db 0x00
	.db 0x00
	.db 0x00
	.db 0x00
	.db 0x00
	.db 0x00
	.db 0x00
	.db 0x00
	.db 0x00
	.db 0x00
	.db 0x00
	.db 0x00
	.db 0x00
	.db 0x00
	.db 0x00
	.db 0x00
	.db 0x00
	.db 0x00
	.db 0x00
	.db 0x00
	.db 0x00
	.db 0x00
	.db 0x00
	.db 0x00
	.db 0x00
	.db 0x00
	.db 0x00
	.db 0x00
	.db 0x00
	.db 0x00
	.db 0x00
	.db 0x00
	.db 0x00
	.db 0x00
	.db 0x00
	.db 0x00
	.db 0x00
	.db 0x00
	.db 0x00
	.db 0x00
	.db 0x00
	.db 0x00
	.db 0x00
	.db 0x00
	.db 0x00
	.db 0x00
	.db 0x00
	.db 0x00
	.db 0x00
	.db 0x00
	.db 0x00
	.db 0x00
	.db 0x00
	.db 0x00
	.db 0x00
	.db 0x00
	.db 0x00
	.db 0x00
	.db 0x00
	.db 0x00
	.db 0x00
	.db 0x00
	.db 0x00
	.db 0x00
	.db 0x00
	.db 0x00
	.db 0x00
	.db 0x00
	.db 0x00
	.db 0x00
	.db 0x00
	.db 0x00
	.db 0x00
	.db 0x00
	.db 0x00
	.db 0x00
	.db 0x00
	.db 0x00
	.db 0x00
	.db 0x00
	.db 0x00
	.db 0x00
	.db 0x00
	.db 0x00
	.db 0x00
	.db 0x00
	.db 0x00
	.db 0x00
	.db 0x00
	.db 0x00
	.db 0x00
	.db 0x00
	.db 0x00
	.db 0x00
	.db 0x00
	.db 0x00
	.db 0x00
	.db 0x00
	.db 0x00
	.db 0x00
	.db 0x00
	.db 0x00
	.db 0x00
	.db 0x00
	.db 0x00
	.db 0x00
	.db 0x00
	.db 0x00
	.db 0x00
	.db 0x00
	.db 0x00
	.db 0x00
	.db 0x00
	.db 0x00
	.db 0x00
	.db 0x00
	.db 0x00
	.db 0x00
	.db 0x00
	.db 0x00
	.db 0x00
	.db 0x00
	.db 0x00
	.db 0x00
	.db 0x00
	.db 0x00
	.db 0x00
	.db 0x00
	.db 0x00
	.db 0x00
	.db 0x00
	.db 0x00
	.db 0x00
	.db 0x00
	.db 0x00
	.db 0x00
	.db 0x00
	.db 0x00
	.db 0x00
	.db 0x00
	.db 0x00
	.db 0x00
	.db 0x00
	.db 0x00
	.db 0x00
	.db 0x00
	.db 0x00
	.db 0x00
	.db 0x00
	.db 0x00
	.db 0x00
	.db 0x00
	.db 0x00
	.db 0x00
	.db 0x00
	.db 0x00
	.db 0x00
	.db 0x00
	.db 0x00
	.db 0x00
	.db 0x00
	.db 0x00
	.db 0x00
	.db 0x00
	.db 0x00
	.db 0x00
	.db 0x00
	.db 0x00
	.db 0x00
	.db 0x00
	.db 0x00
	.db 0x00
	.db 0x00
	.db 0x00
	.db 0x00
	.db 0x00
	.db 0x00
	.db 0x00
	.db 0x00
	.db 0x00
	.db 0x00
	.db 0x00
	.db 0x00
	.db 0x00
	.db 0x00
	.db 0x00
	.db 0x00
	.db 0x00
	.db 0x00
	.db 0x00
	.db 0x00
	.db 0x00
	.db 0x00
	.db 0x00
	.db 0x00
	.db 0x00
	.db 0x00
	.db 0x00
	.db 0x00
	.db 0x00
	.db 0x00
	.db 0x00
	.db 0x00
	.db 0x00
	.db 0x00
	.db 0x00
	.db 0x00
	.db 0x00
	.db 0x00
	.db 0x00
	.db 0x00
	.db 0x00
	.db 0x00
	.db 0x00
	.db 0x00
	.db 0x00
	.db 0x00
	.db 0x00
	.db 0x00
	.db 0x00
	.db 0x00
	.db 0x00
	.db 0x00
	.db 0x00
	.db 0x00
	.db 0x00
	.db 0x00
	.db 0x00
	.db 0x00
	.db 0x00
	.db 0x00
	.db 0x00
	.db 0x00
	.db 0x00
	.db 0x00
	.db 0x00
	.db 0x00
	.db 0x00
	.db 0x00
	.db 0x00
	.db 0x00
	.db 0x00
	.db 0x00
	.db 0x00
	.db 0x00
	.db 0x00
	.db 0x00
	.db 0x00
	.db 0x00
	.db 0x00
	.db 0x00
	.db 0x00
	.db 0x00
	.db 0x00
	.db 0x00
	.db 0x00
	.db 0x00
	.db 0x00
	.db 0x00
	.db 0x00
	.db 0x00
	.db 0x00
	.db 0x00
	.db 0x00
	.db 0x00
	.db 0x00
	.db 0x00
	.db 0x00
	.db 0x00
	.db 0x00
	.db 0x00
	.db 0x00
	.db 0x00
	.db 0x00
	.db 0x00
	.db 0x00
	.db 0x00
	.db 0x00
	.db 0x00
	.db 0x00
	.db 0x00
	.db 0x00
	.db 0x00
	.db 0x00
	.db 0x00
	.db 0x00
	.db 0x00
	.db 0x00
	.db 0x00
	.db 0x00
	.db 0x00
	.db 0x00
	.db 0x00
	.db 0x00
	.db 0x00
	.db 0x00
	.db 0x00
	.db 0x00
	.db 0x00
	.db 0x00
	.db 0x00
	.db 0x00
	.db 0x00
	.db 0x00
	.db 0x00
	.db 0x00
	.db 0x00
	.db 0x00
	.db 0x00
	.db 0x00
	.db 0x00
	.db 0x00
	.db 0x00
	.db 0x00
	.db 0x00
	.db 0x00
	.db 0x00
	.db 0x00
	.db 0x00
	.db 0x00
	.db 0x00
	.db 0x00
	.db 0x00
	.db 0x00
	.db 0x00
	.area _CABS (ABS)
