                                      1 ;--------------------------------------------------------
                                      2 ; File Created by SDCC : free open source ISO C Compiler
                                      3 ; Version 4.5.1 #15267 (Linux)
                                      4 ;--------------------------------------------------------
                                      5 	.module PointerSelector
                                      6 	
                                      7 ;--------------------------------------------------------
                                      8 ; Public variables in this module
                                      9 ;--------------------------------------------------------
                                     10 	.globl _joypad
                                     11 	.globl _pointer_init
                                     12 	.globl _move_pointer
                                     13 	.globl _control_pointer
                                     14 	.globl _update_pointer
                                     15 	.globl _hide_pointer
                                     16 ;--------------------------------------------------------
                                     17 ; special function registers
                                     18 ;--------------------------------------------------------
                                     19 ;--------------------------------------------------------
                                     20 ; ram data
                                     21 ;--------------------------------------------------------
                                     22 	.area _DATA
                                     23 ;--------------------------------------------------------
                                     24 ; ram data
                                     25 ;--------------------------------------------------------
                                     26 	.area _INITIALIZED
                                     27 ;--------------------------------------------------------
                                     28 ; absolute external ram data
                                     29 ;--------------------------------------------------------
                                     30 	.area _DABS (ABS)
                                     31 ;--------------------------------------------------------
                                     32 ; global & static initialisations
                                     33 ;--------------------------------------------------------
                                     34 	.area _HOME
                                     35 	.area _GSINIT
                                     36 	.area _GSFINAL
                                     37 	.area _GSINIT
                                     38 ;--------------------------------------------------------
                                     39 ; Home
                                     40 ;--------------------------------------------------------
                                     41 	.area _HOME
                                     42 	.area _HOME
                                     43 ;--------------------------------------------------------
                                     44 ; code
                                     45 ;--------------------------------------------------------
                                     46 	.area _CODE
                                     47 ;src/PointerSelector.c:6: void pointer_init(Pointer* s) {
                                     48 ;	---------------------------------
                                     49 ; Function pointer_init
                                     50 ; ---------------------------------
    00000000                         51 _pointer_init::
                                     52 ;src/PointerSelector.c:7: s->x = 80;
    00000000 3E 50            [ 8]   53 	ld	a, #0x50
    00000002 12               [ 8]   54 	ld	(de), a
                                     55 ;src/PointerSelector.c:8: s->y = 72;
    00000003 6B               [ 4]   56 	ld	l, e
    00000004 62               [ 4]   57 	ld	h, d
    00000005 23               [ 8]   58 	inc	hl
    00000006 36 48            [12]   59 	ld	(hl), #0x48
                                     60 ;src/PointerSelector.c:9: for(uint8_t i = 4;i<=7;i++){
    00000008 13               [ 8]   61 	inc	de
    00000009 13               [ 8]   62 	inc	de
    0000000A 0E 04            [ 8]   63 	ld	c, #0x04
    0000000C                         64 00103$:
    0000000C 3E 07            [ 8]   65 	ld	a, #0x07
    0000000E 91               [ 4]   66 	sub	a, c
    0000000F D8               [20]   67 	ret	C
                                     68 ;src/PointerSelector.c:10: s->sprite_ids[i] = i;
    00000010 69               [ 4]   69 	ld	l, c
    00000011 26 00            [ 8]   70 	ld	h, #0x00
    00000013 19               [ 8]   71 	add	hl, de
    00000014 71               [ 8]   72 	ld	(hl), c
                                     73 ;src/PointerSelector.c:9: for(uint8_t i = 4;i<=7;i++){
    00000015 0C               [ 4]   74 	inc	c
                                     75 ;src/PointerSelector.c:12: }
    00000016 18 F4            [12]   76 	jr	00103$
                                     77 ;src/PointerSelector.c:14: void move_pointer(Pointer* s) {
                                     78 ;	---------------------------------
                                     79 ; Function move_pointer
                                     80 ; ---------------------------------
    00000018                         81 _move_pointer::
    00000018 3B               [ 8]   82 	dec	sp
    00000019 3B               [ 8]   83 	dec	sp
                                     84 ;src/PointerSelector.c:16: move_sprite(4, s->x- SPRITESIZE, s->y-SPRITESIZE);
    0000001A 4B               [ 4]   85 	ld	c, e
    0000001B 42               [ 4]   86 	ld	b, d
    0000001C 03               [ 8]   87 	inc	bc
    0000001D 0A               [ 8]   88 	ld	a, (bc)
    0000001E C6 F8            [ 8]   89 	add	a, #0xf8
    00000020 F8 00            [12]   90 	ldhl	sp,	#0
    00000022 22               [ 8]   91 	ld	(hl+), a
    00000023 1A               [ 8]   92 	ld	a, (de)
    00000024 C6 F8            [ 8]   93 	add	a, #0xf8
    00000026 77               [ 8]   94 	ld	(hl), a
                                     95 ;/home/josem/gbdk/include/gb/gb.h:1973: OAM_item_t * itm = &shadow_OAM[nb];
    00000027 21r10r00         [12]   96 	ld	hl, #(_shadow_OAM + 16)
                                     97 ;/home/josem/gbdk/include/gb/gb.h:1974: itm->y=y, itm->x=x;
    0000002A E5               [16]   98 	push	hl
    0000002B F8 02            [12]   99 	ldhl	sp,	#2
    0000002D 7E               [ 8]  100 	ld	a, (hl)
    0000002E E1               [12]  101 	pop	hl
    0000002F 22               [ 8]  102 	ld	(hl+), a
    00000030 E5               [16]  103 	push	hl
    00000031 F8 03            [12]  104 	ldhl	sp,	#3
    00000033 7E               [ 8]  105 	ld	a, (hl)
    00000034 E1               [12]  106 	pop	hl
    00000035 77               [ 8]  107 	ld	(hl), a
                                    108 ;src/PointerSelector.c:17: move_sprite(5, s->x- SPRITESIZE, s->y);
    00000036 0A               [ 8]  109 	ld	a, (bc)
    00000037 F8 00            [12]  110 	ldhl	sp,	#0
    00000039 22               [ 8]  111 	ld	(hl+), a
    0000003A 1A               [ 8]  112 	ld	a, (de)
    0000003B C6 F8            [ 8]  113 	add	a, #0xf8
    0000003D 77               [ 8]  114 	ld	(hl), a
                                    115 ;/home/josem/gbdk/include/gb/gb.h:1973: OAM_item_t * itm = &shadow_OAM[nb];
    0000003E 21r14r00         [12]  116 	ld	hl, #(_shadow_OAM + 20)
                                    117 ;/home/josem/gbdk/include/gb/gb.h:1974: itm->y=y, itm->x=x;
    00000041 E5               [16]  118 	push	hl
    00000042 F8 02            [12]  119 	ldhl	sp,	#2
    00000044 7E               [ 8]  120 	ld	a, (hl)
    00000045 E1               [12]  121 	pop	hl
    00000046 22               [ 8]  122 	ld	(hl+), a
    00000047 E5               [16]  123 	push	hl
    00000048 F8 03            [12]  124 	ldhl	sp,	#3
    0000004A 7E               [ 8]  125 	ld	a, (hl)
    0000004B E1               [12]  126 	pop	hl
    0000004C 77               [ 8]  127 	ld	(hl), a
                                    128 ;src/PointerSelector.c:18: move_sprite(6, s->x, s->y-SPRITESIZE);
    0000004D 0A               [ 8]  129 	ld	a, (bc)
    0000004E C6 F8            [ 8]  130 	add	a, #0xf8
    00000050 F8 00            [12]  131 	ldhl	sp,	#0
    00000052 22               [ 8]  132 	ld	(hl+), a
    00000053 1A               [ 8]  133 	ld	a, (de)
    00000054 77               [ 8]  134 	ld	(hl), a
                                    135 ;/home/josem/gbdk/include/gb/gb.h:1973: OAM_item_t * itm = &shadow_OAM[nb];
    00000055 21r18r00         [12]  136 	ld	hl, #(_shadow_OAM + 24)
                                    137 ;/home/josem/gbdk/include/gb/gb.h:1974: itm->y=y, itm->x=x;
    00000058 E5               [16]  138 	push	hl
    00000059 F8 02            [12]  139 	ldhl	sp,	#2
    0000005B 7E               [ 8]  140 	ld	a, (hl)
    0000005C E1               [12]  141 	pop	hl
    0000005D 22               [ 8]  142 	ld	(hl+), a
    0000005E E5               [16]  143 	push	hl
    0000005F F8 03            [12]  144 	ldhl	sp,	#3
    00000061 7E               [ 8]  145 	ld	a, (hl)
    00000062 E1               [12]  146 	pop	hl
    00000063 77               [ 8]  147 	ld	(hl), a
                                    148 ;src/PointerSelector.c:19: move_sprite(7, s->x, s->y);
    00000064 0A               [ 8]  149 	ld	a, (bc)
    00000065 47               [ 4]  150 	ld	b, a
    00000066 1A               [ 8]  151 	ld	a, (de)
    00000067 4F               [ 4]  152 	ld	c, a
                                    153 ;/home/josem/gbdk/include/gb/gb.h:1973: OAM_item_t * itm = &shadow_OAM[nb];
    00000068 21r1Cr00         [12]  154 	ld	hl, #(_shadow_OAM + 28)
                                    155 ;/home/josem/gbdk/include/gb/gb.h:1974: itm->y=y, itm->x=x;
    0000006B 78               [ 4]  156 	ld	a, b
    0000006C 22               [ 8]  157 	ld	(hl+), a
    0000006D 71               [ 8]  158 	ld	(hl), c
                                    159 ;src/PointerSelector.c:19: move_sprite(7, s->x, s->y);
                                    160 ;src/PointerSelector.c:21: }
    0000006E 33               [ 8]  161 	inc	sp
    0000006F 33               [ 8]  162 	inc	sp
    00000070 C9               [16]  163 	ret
                                    164 ;src/PointerSelector.c:23: void control_pointer(Pointer* s){
                                    165 ;	---------------------------------
                                    166 ; Function control_pointer
                                    167 ; ---------------------------------
    00000071                        168 _control_pointer::
    00000071 4B               [ 4]  169 	ld	c, e
    00000072 42               [ 4]  170 	ld	b, d
                                    171 ;src/PointerSelector.c:25: if(joypad() & J_UP) {
    00000073 CDr00r00         [24]  172 	call	_joypad
                                    173 ;src/PointerSelector.c:26: s->y -= 8;
    00000076 59               [ 4]  174 	ld	e, c
    00000077 50               [ 4]  175 	ld	d, b
    00000078 13               [ 8]  176 	inc	de
                                    177 ;src/PointerSelector.c:25: if(joypad() & J_UP) {
    00000079 CB 57            [ 8]  178 	bit	2, a
    0000007B 28 05            [12]  179 	jr	Z, 00110$
                                    180 ;src/PointerSelector.c:26: s->y -= 8;
    0000007D 1A               [ 8]  181 	ld	a, (de)
    0000007E C6 F8            [ 8]  182 	add	a, #0xf8
    00000080 12               [ 8]  183 	ld	(de), a
    00000081 C9               [16]  184 	ret
    00000082                        185 00110$:
                                    186 ;src/PointerSelector.c:27: } else if(joypad() & J_DOWN) {
    00000082 D5               [16]  187 	push	de
    00000083 CDr00r00         [24]  188 	call	_joypad
    00000086 D1               [12]  189 	pop	de
    00000087 CB 5F            [ 8]  190 	bit	3, a
    00000089 28 05            [12]  191 	jr	Z, 00107$
                                    192 ;src/PointerSelector.c:28: s->y += 8;
    0000008B 1A               [ 8]  193 	ld	a, (de)
    0000008C C6 08            [ 8]  194 	add	a, #0x08
    0000008E 12               [ 8]  195 	ld	(de), a
    0000008F C9               [16]  196 	ret
    00000090                        197 00107$:
                                    198 ;src/PointerSelector.c:29: } else if(joypad() & J_LEFT) {
    00000090 CDr00r00         [24]  199 	call	_joypad
                                    200 ;src/PointerSelector.c:30: s->x -= 8;
                                    201 ;src/PointerSelector.c:29: } else if(joypad() & J_LEFT) {
    00000093 CB 4F            [ 8]  202 	bit	1, a
    00000095 28 05            [12]  203 	jr	Z, 00104$
                                    204 ;src/PointerSelector.c:30: s->x -= 8;
    00000097 0A               [ 8]  205 	ld	a, (bc)
    00000098 C6 F8            [ 8]  206 	add	a, #0xf8
    0000009A 02               [ 8]  207 	ld	(bc), a
    0000009B C9               [16]  208 	ret
    0000009C                        209 00104$:
                                    210 ;src/PointerSelector.c:31: } else if(joypad() & J_RIGHT) {
    0000009C CDr00r00         [24]  211 	call	_joypad
    0000009F 0F               [ 4]  212 	rrca
    000000A0 D0               [20]  213 	ret	NC
                                    214 ;src/PointerSelector.c:32: s->x += 8;
    000000A1 0A               [ 8]  215 	ld	a, (bc)
    000000A2 C6 08            [ 8]  216 	add	a, #0x08
    000000A4 02               [ 8]  217 	ld	(bc), a
                                    218 ;src/PointerSelector.c:34: }
    000000A5 C9               [16]  219 	ret
                                    220 ;src/PointerSelector.c:36: void update_pointer(Pointer* s) { 
                                    221 ;	---------------------------------
                                    222 ; Function update_pointer
                                    223 ; ---------------------------------
    000000A6                        224 _update_pointer::
                                    225 ;src/PointerSelector.c:37: control_pointer(s);
    000000A6 D5               [16]  226 	push	de
    000000A7 CDr71r00         [24]  227 	call	_control_pointer
    000000AA D1               [12]  228 	pop	de
                                    229 ;src/PointerSelector.c:38: move_pointer(s);
                                    230 ;src/PointerSelector.c:39: }
    000000AB C3r18r00         [16]  231 	jp	_move_pointer
                                    232 ;src/PointerSelector.c:41: void hide_pointer(Pointer* s){
                                    233 ;	---------------------------------
                                    234 ; Function hide_pointer
                                    235 ; ---------------------------------
    000000AE                        236 _hide_pointer::
                                    237 ;src/PointerSelector.c:42: for(uint8_t i= 4; i<=7; i++){
    000000AE 0E 04            [ 8]  238 	ld	c, #0x04
    000000B0                        239 00104$:
    000000B0 3E 07            [ 8]  240 	ld	a, #0x07
    000000B2 91               [ 4]  241 	sub	a, c
    000000B3 D8               [20]  242 	ret	C
                                    243 ;/home/josem/gbdk/include/gb/gb.h:1973: OAM_item_t * itm = &shadow_OAM[nb];
    000000B4 11r00r00         [12]  244 	ld	de, #_shadow_OAM+0
    000000B7 69               [ 4]  245 	ld	l, c
    000000B8 AF               [ 4]  246 	xor	a, a
    000000B9 67               [ 4]  247 	ld	h, a
    000000BA 29               [ 8]  248 	add	hl, hl
    000000BB 29               [ 8]  249 	add	hl, hl
    000000BC 19               [ 8]  250 	add	hl, de
                                    251 ;/home/josem/gbdk/include/gb/gb.h:1974: itm->y=y, itm->x=x;
    000000BD AF               [ 4]  252 	xor	a, a
    000000BE 22               [ 8]  253 	ld	(hl+), a
    000000BF 77               [ 8]  254 	ld	(hl), a
                                    255 ;src/PointerSelector.c:42: for(uint8_t i= 4; i<=7; i++){
    000000C0 0C               [ 4]  256 	inc	c
                                    257 ;src/PointerSelector.c:45: }
    000000C1 18 ED            [12]  258 	jr	00104$
                                    259 	.area _CODE
                                    260 	.area _INITIALIZER
                                    261 	.area _CABS (ABS)
